target datalayout = "e-m:e-p270:32:32-p271:32:32-p272:64:64-i64:64-i128:128-f80:128-n8:16:32:64-S128"
target triple = "x86_64-pc-linux-gnu"

%"class.glslang::TIntermTyped" = type { %class.TIntermNode, %"class.glslang::TType" }
%class.TIntermNode = type { ptr, %"struct.glslang::TSourceLoc" }
%"struct.glslang::TSourceLoc" = type { ptr, i32, i32, i32 }
%"class.glslang::TType" = type { ptr, i32, [4 x i8], %"class.glslang::TQualifier", ptr, %union.anon, ptr, ptr, %"struct.glslang::TSampler", ptr, ptr }
%"class.glslang::TQualifier" = type <{ ptr, i64, i8, [3 x i8], i32, i32, i64, i64, i8, i8, i8, i8, i8, [3 x i8], i32, i8, i8, i8, i8, i32, ptr, i8, i8, [6 x i8] }>
%union.anon = type { ptr }
%"struct.glslang::TSampler" = type { i32 }
%"class.std::__cxx11::basic_string" = type { %"struct.std::__cxx11::basic_string<char, std::char_traits<char>, glslang::pool_allocator<char>>::_Alloc_hider", i64, %union.anon.0 }
%"struct.std::__cxx11::basic_string<char, std::char_traits<char>, glslang::pool_allocator<char>>::_Alloc_hider" = type { %"class.glslang::pool_allocator", ptr }
%"class.glslang::pool_allocator" = type { ptr }
%union.anon.0 = type { i64, [8 x i8] }
%"class.glslang::TIntermOperator" = type { %"class.glslang::TIntermTyped", i32, i32 }
%"class.glslang::TIntermUnary" = type { %"class.glslang::TIntermOperator", ptr, %"struct.glslang::TSpirvInstruction" }
%"struct.glslang::TSpirvInstruction" = type <{ %"class.std::__cxx11::basic_string", i32, [4 x i8] }>

; Function Attrs: mustprogress nounwind uwtable
define void @_ZN7glslang12TIntermUnary15updatePrecisionEv(ptr noundef nonnull align 8 dereferenceable(248) %0) unnamed_addr #0 align 2 {
  %2 = alloca ptr, align 8
  store ptr %0, ptr %2, align 8
  %3 = load ptr, ptr %2, align 8
  %4 = load ptr, ptr %3, align 8
  %5 = getelementptr inbounds ptr, ptr %4, i64 32
  %6 = load ptr, ptr %5, align 8
  %7 = call noundef i32 %6(ptr noundef nonnull align 8 dereferenceable(184) %3)
  %8 = icmp eq i32 %7, 8
  br i1 %8, label %21, label %9

9:                                                ; preds = %1
  %10 = load ptr, ptr %3, align 8
  %11 = getelementptr inbounds ptr, ptr %10, i64 32
  %12 = load ptr, ptr %11, align 8
  %13 = call noundef i32 %12(ptr noundef nonnull align 8 dereferenceable(184) %3)
  %14 = icmp eq i32 %13, 9
  br i1 %14, label %21, label %15

15:                                               ; preds = %9
  %16 = load ptr, ptr %3, align 8
  %17 = getelementptr inbounds ptr, ptr %16, i64 32
  %18 = load ptr, ptr %17, align 8
  %19 = call noundef i32 %18(ptr noundef nonnull align 8 dereferenceable(184) %3)
  %20 = icmp eq i32 %19, 1
  br i1 %20, label %21, label %67

21:                                               ; preds = %15, %9, %1
  %22 = getelementptr inbounds %"class.glslang::TIntermUnary", ptr %3, i32 0, i32 1
  %23 = load ptr, ptr %22, align 8
  %24 = load ptr, ptr %23, align 8
  %25 = getelementptr inbounds ptr, ptr %24, i64 33
  %26 = load ptr, ptr %25, align 8
  %27 = call noundef nonnull align 8 dereferenceable(80) ptr %26(ptr noundef nonnull align 8 dereferenceable(184) %23)
  %28 = getelementptr inbounds %"class.glslang::TQualifier", ptr %27, i32 0, i32 1
  %29 = load i64, ptr %28, align 8
  %30 = lshr i64 %29, 25
  %31 = and i64 %30, 7
  %32 = trunc i64 %31 to i32
  %33 = load ptr, ptr %3, align 8
  %34 = getelementptr inbounds ptr, ptr %33, i64 33
  %35 = load ptr, ptr %34, align 8
  %36 = call noundef nonnull align 8 dereferenceable(80) ptr %35(ptr noundef nonnull align 8 dereferenceable(184) %3)
  %37 = getelementptr inbounds %"class.glslang::TQualifier", ptr %36, i32 0, i32 1
  %38 = load i64, ptr %37, align 8
  %39 = lshr i64 %38, 25
  %40 = and i64 %39, 7
  %41 = trunc i64 %40 to i32
  %42 = icmp sgt i32 %32, %41
  br i1 %42, label %43, label %66

43:                                               ; preds = %21
  %44 = getelementptr inbounds %"class.glslang::TIntermUnary", ptr %3, i32 0, i32 1
  %45 = load ptr, ptr %44, align 8
  %46 = load ptr, ptr %45, align 8
  %47 = getelementptr inbounds ptr, ptr %46, i64 33
  %48 = load ptr, ptr %47, align 8
  %49 = call noundef nonnull align 8 dereferenceable(80) ptr %48(ptr noundef nonnull align 8 dereferenceable(184) %45)
  %50 = getelementptr inbounds %"class.glslang::TQualifier", ptr %49, i32 0, i32 1
  %51 = load i64, ptr %50, align 8
  %52 = lshr i64 %51, 25
  %53 = and i64 %52, 7
  %54 = trunc i64 %53 to i32
  %55 = load ptr, ptr %3, align 8
  %56 = getelementptr inbounds ptr, ptr %55, i64 33
  %57 = load ptr, ptr %56, align 8
  %58 = call noundef nonnull align 8 dereferenceable(80) ptr %57(ptr noundef nonnull align 8 dereferenceable(184) %3)
  %59 = getelementptr inbounds %"class.glslang::TQualifier", ptr %58, i32 0, i32 1
  %60 = zext i32 %54 to i64
  %61 = load i64, ptr %59, align 8
  %62 = and i64 %60, 7
  %63 = shl i64 %62, 25
  %64 = and i64 %61, -234881025
  %65 = or i64 %64, %63
  store i64 %65, ptr %59, align 8
  br label %66

66:                                               ; preds = %43, %21
  br label %67

67:                                               ; preds = %66, %15
  ret void
}