; Function Attrs: mustprogress nounwind uwtable
define void @_ZN7glslang12TIntermUnary15updatePrecisionEv(ptr noundef nonnull align 8 dereferenceable(248) %0) unnamed_addr #0 align 2 {
  %2 = load ptr, ptr %0, align 8
  %3 = getelementptr inbounds i8, ptr %2, i64 256
  %4 = load ptr, ptr %3, align 8
  %5 = tail call noundef i32 %4(ptr noundef nonnull align 8 dereferenceable(184) %0) #17
  %6 = icmp eq i32 %5, 8
  br i1 %6, label %19, label %7

7:                                                ; preds = %1
  %8 = load ptr, ptr %0, align 8
  %9 = getelementptr inbounds i8, ptr %8, i64 256
  %10 = load ptr, ptr %9, align 8
  %11 = tail call noundef i32 %10(ptr noundef nonnull align 8 dereferenceable(184) %0) #17
  %12 = icmp eq i32 %11, 9
  br i1 %12, label %19, label %13

13:                                               ; preds = %7
  %14 = load ptr, ptr %0, align 8
  %15 = getelementptr inbounds i8, ptr %14, i64 256
  %16 = load ptr, ptr %15, align 8
  %17 = tail call noundef i32 %16(ptr noundef nonnull align 8 dereferenceable(184) %0) #17
  %18 = icmp eq i32 %17, 1
  br i1 %18, label %19, label %58

19:                                               ; preds = %13, %7, %1
  %20 = getelementptr inbounds i8, ptr %0, i64 192
  %21 = load ptr, ptr %20, align 8
  %22 = load ptr, ptr %21, align 8
  %23 = getelementptr inbounds i8, ptr %22, i64 264
  %24 = load ptr, ptr %23, align 8
  %25 = tail call noundef nonnull align 8 dereferenceable(80) ptr %24(ptr noundef nonnull align 8 dereferenceable(184) %21) #17
  %26 = getelementptr inbounds i8, ptr %25, i64 8
  %27 = load i64, ptr %26, align 8
  %28 = trunc i64 %27 to i32
  %29 = lshr i32 %28, 25
  %30 = and i32 %29, 7
  %31 = load ptr, ptr %0, align 8
  %32 = getelementptr inbounds i8, ptr %31, i64 264
  %33 = load ptr, ptr %32, align 8
  %34 = tail call noundef nonnull align 8 dereferenceable(80) ptr %33(ptr noundef nonnull align 8 dereferenceable(184) %0) #17
  %35 = getelementptr inbounds i8, ptr %34, i64 8
  %36 = load i64, ptr %35, align 8
  %37 = trunc i64 %36 to i32
  %38 = lshr i32 %37, 25
  %39 = and i32 %38, 7
  %40 = icmp ugt i32 %30, %39
  br i1 %40, label %41, label %58

41:                                               ; preds = %19
  %42 = load ptr, ptr %20, align 8
  %43 = load ptr, ptr %42, align 8
  %44 = getelementptr inbounds i8, ptr %43, i64 264
  %45 = load ptr, ptr %44, align 8
  %46 = tail call noundef nonnull align 8 dereferenceable(80) ptr %45(ptr noundef nonnull align 8 dereferenceable(184) %42) #17
  %47 = getelementptr inbounds i8, ptr %46, i64 8
  %48 = load i64, ptr %47, align 8
  %49 = and i64 %48, 234881024
  %50 = load ptr, ptr %0, align 8
  %51 = getelementptr inbounds i8, ptr %50, i64 264
  %52 = load ptr, ptr %51, align 8
  %53 = tail call noundef nonnull align 8 dereferenceable(80) ptr %52(ptr noundef nonnull align 8 dereferenceable(184) %0) #17
  %54 = getelementptr inbounds i8, ptr %53, i64 8
  %55 = load i64, ptr %54, align 8
  %56 = and i64 %55, -234881025
  %57 = or disjoint i64 %56, %49
  store i64 %57, ptr %54, align 8
  br label %58

58:                                               ; preds = %19, %41, %13
  ret void
}